target datalayout = "e-m:e-p270:32:32-p271:32:32-p272:64:64-i64:64-i128:128-f80:128-n8:16:32:64-S128"
target triple = "x86_64-pc-linux-gnu"

%struct.bufferinfo = type { ptr, ptr, i64, i64, i32, i32, ptr, ptr, ptr, ptr, ptr }

; Function Attrs: mustprogress uwtable
define internal void @_ZN8nanobind6detailL24nb_ndarray_releasebufferEP7_objectP10bufferinfo(ptr noundef %0, ptr noundef %1) #12 {
  %3 = alloca ptr, align 8
  %4 = alloca ptr, align 8
  store ptr %0, ptr %3, align 8
  store ptr %1, ptr %4, align 8
  %5 = load ptr, ptr %4, align 8
  %6 = getelementptr inbounds nuw %struct.bufferinfo, ptr %5, i32 0, i32 7
  %7 = load ptr, ptr %6, align 8
  call void @PyMem_Free(ptr noundef %7)
  %8 = load ptr, ptr %4, align 8
  %9 = getelementptr inbounds nuw %struct.bufferinfo, ptr %8, i32 0, i32 8
  %10 = load ptr, ptr %9, align 8
  call void @PyMem_Free(ptr noundef %10)
  ret void
}