; Function Attrs: mustprogress uwtable
define internal void @_ZN8nanobind6detailL24nb_ndarray_releasebufferEP7_objectP10bufferinfo(ptr readnone captures(none) %0, ptr noundef readonly captures(none) %1) #11 {
  %3 = getelementptr inbounds nuw i8, ptr %1, i64 48
  %4 = load ptr, ptr %3, align 8
  tail call void @PyMem_Free(ptr noundef %4)
  %5 = getelementptr inbounds nuw i8, ptr %1, i64 56
  %6 = load ptr, ptr %5, align 8
  tail call void @PyMem_Free(ptr noundef %6)
  ret void
}